target datalayout = "e-m:e-p270:32:32-p271:32:32-p272:64:64-i64:64-i128:128-f80:128-n8:16:32:64-S128"
target triple = "x86_64-pc-linux-gnu"

%struct.JSValue = type { %union.JSValueUnion, i64 }
%union.JSValueUnion = type { double }
%struct.JSRefCountHeader = type { i32 }
%struct.JSThreadState = type { %struct.list_head, %struct.list_head, %struct.list_head, %struct.list_head, i32, i32, ptr, ptr }
%struct.list_head = type { ptr, ptr }
%struct.JSOSTimer = type { %struct.list_head, i32, i64, %struct.JSValue }

; Function Attrs: nounwind uwtable
define internal void @JS_FreeValueRT(ptr noundef %0, i64 %1, i64 %2) #0 {
  %4 = alloca %struct.JSValue, align 8
  %5 = alloca ptr, align 8
  %6 = alloca ptr, align 8
  %7 = getelementptr inbounds { i64, i64 }, ptr %4, i32 0, i32 0
  store i64 %1, ptr %7, align 8
  %8 = getelementptr inbounds { i64, i64 }, ptr %4, i32 0, i32 1
  store i64 %2, ptr %8, align 8
  store ptr %0, ptr %5, align 8
  %9 = getelementptr inbounds %struct.JSValue, ptr %4, i32 0, i32 1
  %10 = load i64, ptr %9, align 8
  %11 = trunc i64 %10 to i32
  %12 = icmp uge i32 %11, -11
  br i1 %12, label %13, label %28

13:                                               ; preds = %3
  %14 = getelementptr inbounds %struct.JSValue, ptr %4, i32 0, i32 0
  %15 = load ptr, ptr %14, align 8
  store ptr %15, ptr %6, align 8
  %16 = load ptr, ptr %6, align 8
  %17 = getelementptr inbounds %struct.JSRefCountHeader, ptr %16, i32 0, i32 0
  %18 = load i32, ptr %17, align 4
  %19 = add i32 %18, -1
  store i32 %19, ptr %17, align 4
  %20 = icmp sle i32 %19, 0
  br i1 %20, label %21, label %27

21:                                               ; preds = %13
  %22 = load ptr, ptr %5, align 8
  %23 = getelementptr inbounds { i64, i64 }, ptr %4, i32 0, i32 0
  %24 = load i64, ptr %23, align 8
  %25 = getelementptr inbounds { i64, i64 }, ptr %4, i32 0, i32 1
  %26 = load i64, ptr %25, align 8
  call void @__JS_FreeValueRT(ptr noundef %22, i64 %24, i64 %26)
  br label %27

27:                                               ; preds = %21, %13
  br label %28

28:                                               ; preds = %27, %3
  ret void
}

; Function Attrs: nounwind uwtable
define internal void @list_del(ptr noundef %0) #0 {
  %2 = alloca ptr, align 8
  %3 = alloca ptr, align 8
  %4 = alloca ptr, align 8
  store ptr %0, ptr %2, align 8
  %5 = load ptr, ptr %2, align 8
  %6 = getelementptr inbounds %struct.list_head, ptr %5, i32 0, i32 0
  %7 = load ptr, ptr %6, align 8
  store ptr %7, ptr %3, align 8
  %8 = load ptr, ptr %2, align 8
  %9 = getelementptr inbounds %struct.list_head, ptr %8, i32 0, i32 1
  %10 = load ptr, ptr %9, align 8
  store ptr %10, ptr %4, align 8
  %11 = load ptr, ptr %4, align 8
  %12 = load ptr, ptr %3, align 8
  %13 = getelementptr inbounds %struct.list_head, ptr %12, i32 0, i32 1
  store ptr %11, ptr %13, align 8
  %14 = load ptr, ptr %3, align 8
  %15 = load ptr, ptr %4, align 8
  %16 = getelementptr inbounds %struct.list_head, ptr %15, i32 0, i32 0
  store ptr %14, ptr %16, align 8
  %17 = load ptr, ptr %2, align 8
  %18 = getelementptr inbounds %struct.list_head, ptr %17, i32 0, i32 0
  store ptr null, ptr %18, align 8
  %19 = load ptr, ptr %2, align 8
  %20 = getelementptr inbounds %struct.list_head, ptr %19, i32 0, i32 1
  store ptr null, ptr %20, align 8
  ret void
}

; Function Attrs: nounwind uwtable
define internal void @free_timer(ptr noundef %0, ptr noundef %1) #0 {
  %3 = alloca ptr, align 8
  %4 = alloca ptr, align 8
  store ptr %0, ptr %3, align 8
  store ptr %1, ptr %4, align 8
  %5 = load ptr, ptr %4, align 8
  %6 = getelementptr inbounds %struct.JSOSTimer, ptr %5, i32 0, i32 0
  call void @list_del(ptr noundef %6)
  %7 = load ptr, ptr %3, align 8
  %8 = load ptr, ptr %4, align 8
  %9 = getelementptr inbounds %struct.JSOSTimer, ptr %8, i32 0, i32 3
  %10 = getelementptr inbounds { i64, i64 }, ptr %9, i32 0, i32 0
  %11 = load i64, ptr %10, align 8
  %12 = getelementptr inbounds { i64, i64 }, ptr %9, i32 0, i32 1
  %13 = load i64, ptr %12, align 8
  call void @JS_FreeValueRT(ptr noundef %7, i64 %11, i64 %13)
  %14 = load ptr, ptr %3, align 8
  %15 = load ptr, ptr %4, align 8
  call void @js_free_rt(ptr noundef %14, ptr noundef %15)
  ret void
}

; Function Attrs: nounwind uwtable
define internal ptr @find_timer_by_id(ptr noundef %0, i32 noundef %1) #0 {
  %3 = alloca ptr, align 8
  %4 = alloca ptr, align 8
  %5 = alloca i32, align 4
  %6 = alloca ptr, align 8
  %7 = alloca ptr, align 8
  store ptr %0, ptr %4, align 8
  store i32 %1, ptr %5, align 4
  %8 = load i32, ptr %5, align 4
  %9 = icmp sle i32 %8, 0
  br i1 %9, label %10, label %11

10:                                               ; preds = %2
  store ptr null, ptr %3, align 8
  br label %37

11:                                               ; preds = %2
  %12 = load ptr, ptr %4, align 8
  %13 = getelementptr inbounds %struct.JSThreadState, ptr %12, i32 0, i32 2
  %14 = getelementptr inbounds %struct.list_head, ptr %13, i32 0, i32 1
  %15 = load ptr, ptr %14, align 8
  store ptr %15, ptr %6, align 8
  br label %16

16:                                               ; preds = %32, %11
  %17 = load ptr, ptr %6, align 8
  %18 = load ptr, ptr %4, align 8
  %19 = getelementptr inbounds %struct.JSThreadState, ptr %18, i32 0, i32 2
  %20 = icmp ne ptr %17, %19
  br i1 %20, label %21, label %36

21:                                               ; preds = %16
  %22 = load ptr, ptr %6, align 8
  %23 = getelementptr i8, ptr %22, i64 0
  store ptr %23, ptr %7, align 8
  %24 = load ptr, ptr %7, align 8
  %25 = getelementptr inbounds %struct.JSOSTimer, ptr %24, i32 0, i32 1
  %26 = load i32, ptr %25, align 8
  %27 = load i32, ptr %5, align 4
  %28 = icmp eq i32 %26, %27
  br i1 %28, label %29, label %31

29:                                               ; preds = %21
  %30 = load ptr, ptr %7, align 8
  store ptr %30, ptr %3, align 8
  br label %37

31:                                               ; preds = %21
  br label %32

32:                                               ; preds = %31
  %33 = load ptr, ptr %6, align 8
  %34 = getelementptr inbounds %struct.list_head, ptr %33, i32 0, i32 1
  %35 = load ptr, ptr %34, align 8
  store ptr %35, ptr %6, align 8
  br label %16, !llvm.loop !44

36:                                               ; preds = %16
  store ptr null, ptr %3, align 8
  br label %37

37:                                               ; preds = %36, %29, %10
  %38 = load ptr, ptr %3, align 8
  ret ptr %38
}

; Function Attrs: nounwind uwtable
define internal { i64, i64 } @js_os_clearTimeout(ptr noundef %0, i64 %1, i64 %2, i32 noundef %3, ptr noundef %4) #0 {
  %6 = alloca %struct.JSValue, align 8
  %7 = alloca %struct.JSValue, align 8
  %8 = alloca ptr, align 8
  %9 = alloca i32, align 4
  %10 = alloca ptr, align 8
  %11 = alloca ptr, align 8
  %12 = alloca ptr, align 8
  %13 = alloca ptr, align 8
  %14 = alloca i32, align 4
  %15 = getelementptr inbounds { i64, i64 }, ptr %7, i32 0, i32 0
  store i64 %1, ptr %15, align 8
  %16 = getelementptr inbounds { i64, i64 }, ptr %7, i32 0, i32 1
  store i64 %2, ptr %16, align 8
  store ptr %0, ptr %8, align 8
  store i32 %3, ptr %9, align 4
  store ptr %4, ptr %10, align 8
  %17 = load ptr, ptr %8, align 8
  %18 = call ptr @JS_GetRuntime(ptr noundef %17)
  store ptr %18, ptr %11, align 8
  %19 = load ptr, ptr %11, align 8
  %20 = call ptr @JS_GetRuntimeOpaque(ptr noundef %19)
  store ptr %20, ptr %12, align 8
  %21 = load ptr, ptr %8, align 8
  %22 = load ptr, ptr %10, align 8
  %23 = getelementptr %struct.JSValue, ptr %22, i64 0
  %24 = getelementptr inbounds { i64, i64 }, ptr %23, i32 0, i32 0
  %25 = load i64, ptr %24, align 8
  %26 = getelementptr inbounds { i64, i64 }, ptr %23, i32 0, i32 1
  %27 = load i64, ptr %26, align 8
  %28 = call i32 @JS_ToInt32(ptr noundef %21, ptr noundef %14, i64 %25, i64 %27)
  %29 = icmp ne i32 %28, 0
  br i1 %29, label %30, label %33

30:                                               ; preds = %5
  %31 = getelementptr inbounds %struct.JSValue, ptr %6, i32 0, i32 0
  store i32 0, ptr %31, align 8
  %32 = getelementptr inbounds %struct.JSValue, ptr %6, i32 0, i32 1
  store i64 6, ptr %32, align 8
  br label %47

33:                                               ; preds = %5
  %34 = load ptr, ptr %12, align 8
  %35 = load i32, ptr %14, align 4
  %36 = call ptr @find_timer_by_id(ptr noundef %34, i32 noundef %35)
  store ptr %36, ptr %13, align 8
  %37 = load ptr, ptr %13, align 8
  %38 = icmp ne ptr %37, null
  br i1 %38, label %42, label %39

39:                                               ; preds = %33
  %40 = getelementptr inbounds %struct.JSValue, ptr %6, i32 0, i32 0
  store i32 0, ptr %40, align 8
  %41 = getelementptr inbounds %struct.JSValue, ptr %6, i32 0, i32 1
  store i64 3, ptr %41, align 8
  br label %47

42:                                               ; preds = %33
  %43 = load ptr, ptr %11, align 8
  %44 = load ptr, ptr %13, align 8
  call void @free_timer(ptr noundef %43, ptr noundef %44)
  %45 = getelementptr inbounds %struct.JSValue, ptr %6, i32 0, i32 0
  store i32 0, ptr %45, align 8
  %46 = getelementptr inbounds %struct.JSValue, ptr %6, i32 0, i32 1
  store i64 3, ptr %46, align 8
  br label %47

47:                                               ; preds = %42, %39, %30
  %48 = load { i64, i64 }, ptr %6, align 8
  ret { i64, i64 } %48
}