; Function Attrs: nounwind uwtable
define internal { i64, i64 } @js_os_clearTimeout(ptr noundef %0, i64 %1, i64 %2, i32 %3, ptr nocapture noundef readonly %4) #0 {
  %6 = alloca i32, align 4
  %7 = tail call ptr @JS_GetRuntime(ptr noundef %0) #29
  %8 = tail call ptr @JS_GetRuntimeOpaque(ptr noundef %7) #29
  %9 = load i64, ptr %4, align 8
  %10 = getelementptr inbounds i8, ptr %4, i64 8
  %11 = load i64, ptr %10, align 8
  %12 = call i32 @JS_ToInt32(ptr noundef %0, ptr noundef nonnull %6, i64 %9, i64 %11) #29
  %.not = icmp eq i32 %12, 0
  br i1 %.not, label %13, label %find_timer_by_id.exit.thread

13:                                               ; preds = %5
  %14 = load i32, ptr %6, align 4
  %15 = icmp slt i32 %14, 1
  br i1 %15, label %find_timer_by_id.exit.thread, label %16

16:                                               ; preds = %13
  %17 = getelementptr inbounds i8, ptr %8, i64 32
  %18 = getelementptr inbounds i8, ptr %8, i64 40
  %.0911.i = load ptr, ptr %18, align 8
  %.not12.i = icmp eq ptr %.0911.i, %17
  br i1 %.not12.i, label %find_timer_by_id.exit.thread, label %.lr.ph.i

.lr.ph.i:                                         ; preds = %16, %22
  %.0913.i = phi ptr [ %.09.i, %22 ], [ %.0911.i, %16 ]
  %19 = getelementptr inbounds i8, ptr %.0913.i, i64 16
  %20 = load i32, ptr %19, align 8
  %21 = icmp eq i32 %20, %14
  br i1 %21, label %find_timer_by_id.exit, label %22

22:                                               ; preds = %.lr.ph.i
  %23 = getelementptr inbounds i8, ptr %.0913.i, i64 8
  %.09.i = load ptr, ptr %23, align 8
  %.not.i = icmp eq ptr %.09.i, %17
  br i1 %.not.i, label %find_timer_by_id.exit.thread, label %.lr.ph.i, !llvm.loop !37

find_timer_by_id.exit:                            ; preds = %.lr.ph.i
  %24 = load ptr, ptr %.0913.i, align 8
  %25 = getelementptr inbounds i8, ptr %.0913.i, i64 8
  %26 = load ptr, ptr %25, align 8
  %27 = getelementptr inbounds i8, ptr %24, i64 8
  store ptr %26, ptr %27, align 8
  store ptr %24, ptr %26, align 8
  call void @llvm.memset.p0.i64(ptr noundef nonnull align 8 dereferenceable(16) %.0913.i, i8 0, i64 16, i1 false)
  %28 = getelementptr inbounds i8, ptr %.0913.i, i64 32
  %29 = load i64, ptr %28, align 8
  %30 = getelementptr inbounds i8, ptr %.0913.i, i64 40
  %31 = load i64, ptr %30, align 8
  %32 = trunc i64 %31 to i32
  %33 = icmp ugt i32 %32, -12
  br i1 %33, label %34, label %free_timer.exit

34:                                               ; preds = %find_timer_by_id.exit
  %35 = inttoptr i64 %29 to ptr
  %36 = load i32, ptr %35, align 4
  %37 = add i32 %36, -1
  store i32 %37, ptr %35, align 4
  %38 = icmp slt i32 %37, 1
  br i1 %38, label %39, label %free_timer.exit

39:                                               ; preds = %34
  call void @__JS_FreeValueRT(ptr noundef %7, i64 %29, i64 %31) #29
  br label %free_timer.exit

free_timer.exit:                                  ; preds = %find_timer_by_id.exit, %34, %39
  call void @js_free_rt(ptr noundef %7, ptr noundef nonnull %.0913.i) #29
  br label %find_timer_by_id.exit.thread

find_timer_by_id.exit.thread:                     ; preds = %22, %16, %13, %5, %free_timer.exit
  %.sroa.4.sroa.1.0 = phi i64 [ 3, %free_timer.exit ], [ 6, %5 ], [ 3, %13 ], [ 3, %16 ], [ 3, %22 ]
  %.fca.1.insert = insertvalue { i64, i64 } { i64 0, i64 poison }, i64 %.sroa.4.sroa.1.0, 1
  ret { i64, i64 } %.fca.1.insert
}